
led.elf:     file format elf32-littlearm


Disassembly of section .text:

00000000 <_start>:
   0:	e3a0da01 	mov	sp, #4096	; 0x1000
   4:	eb000000 	bl	c <main>

00000008 <halt>:
   8:	eafffffe 	b	8 <halt>

0000000c <main>:
   c:	e92d4800 	push	{fp, lr}
  10:	e28db004 	add	fp, sp, #4
  14:	e24dd008 	sub	sp, sp, #8
  18:	e59f3040 	ldr	r3, [pc, #64]	; 60 <main+0x54>
  1c:	e50b3008 	str	r3, [fp, #-8]
  20:	e59f303c 	ldr	r3, [pc, #60]	; 64 <main+0x58>
  24:	e50b300c 	str	r3, [fp, #-12]
  28:	e51b3008 	ldr	r3, [fp, #-8]
  2c:	e59f2034 	ldr	r2, [pc, #52]	; 68 <main+0x5c>
  30:	e5832000 	str	r2, [r3]
  34:	e51b300c 	ldr	r3, [fp, #-12]
  38:	e5933000 	ldr	r3, [r3]
  3c:	e20320df 	and	r2, r3, #223	; 0xdf
  40:	e51b300c 	ldr	r3, [fp, #-12]
  44:	e5832000 	str	r2, [r3]
  48:	eb000007 	bl	6c <fun>
  4c:	e3a03000 	mov	r3, #0
  50:	e1a00003 	mov	r0, r3
  54:	e24bd004 	sub	sp, fp, #4
  58:	e8bd4800 	pop	{fp, lr}
  5c:	e12fff1e 	bx	lr
  60:	56000050 			; <UNDEFINED> instruction: 0x56000050
  64:	56000054 			; <UNDEFINED> instruction: 0x56000054
  68:	00444400 	subeq	r4, r4, r0, lsl #8

0000006c <fun>:
  6c:	e52db004 	push	{fp}		; (str fp, [sp, #-4]!)
  70:	e28db000 	add	fp, sp, #0
  74:	e1a00000 	nop			; (mov r0, r0)
  78:	e28bd000 	add	sp, fp, #0
  7c:	e49db004 	pop	{fp}		; (ldr fp, [sp], #4)
  80:	e12fff1e 	bx	lr
